; Function Attrs: nofree nounwind memory(read, inaccessiblemem: none) uwtable
define internal fastcc ptr @html_tag_arg_value(ptr noundef nonnull readonly captures(none) %0, ptr noundef readonly captures(none) %1) unnamed_addr #13 {
  %3 = load i32, ptr %0, align 8, !tbaa !3
  %4 = icmp sgt i32 %3, 0
  br i1 %4, label %.lr.ph, label %.loopexit

.lr.ph:                                           ; preds = %2
  %5 = getelementptr inbounds nuw i8, ptr %0, i64 8
  %6 = load ptr, ptr %5, align 8, !tbaa !10
  %wide.trip.count = zext nneg i32 %3 to i64
  br label %8

7:                                                ; preds = %8
  %indvars.iv.next = add nuw nsw i64 %indvars.iv, 1
  %exitcond.not = icmp eq i64 %indvars.iv.next, %wide.trip.count
  br i1 %exitcond.not, label %.loopexit, label %8

8:                                                ; preds = %.lr.ph, %7
  %indvars.iv = phi i64 [ 0, %.lr.ph ], [ %indvars.iv.next, %7 ]
  %9 = getelementptr inbounds nuw ptr, ptr %6, i64 %indvars.iv
  %10 = load ptr, ptr %9, align 8, !tbaa !14
  %11 = tail call i32 @strcmp(ptr noundef nonnull dereferenceable(1) %10, ptr noundef nonnull dereferenceable(1) %1) #18
  %12 = icmp eq i32 %11, 0
  br i1 %12, label %13, label %7

13:                                               ; preds = %8
  %14 = getelementptr inbounds nuw i8, ptr %0, i64 16
  %15 = load ptr, ptr %14, align 8, !tbaa !11
  %16 = getelementptr inbounds nuw ptr, ptr %15, i64 %indvars.iv
  %17 = load ptr, ptr %16, align 8, !tbaa !14
  br label %.loopexit

.loopexit:                                        ; preds = %7, %2, %13
  %.08 = phi ptr [ %17, %13 ], [ null, %2 ], [ null, %7 ]
  ret ptr %.08
}